; Function Attrs: nounwind uwtable
define range(i32 -173, 2) i32 @wc_RNG_DRBG_Reseed(ptr noundef readonly captures(address_is_null) %0, ptr noundef %1, i32 noundef %2) local_unnamed_addr #0 {
  %4 = alloca [55 x i8], align 16
  %5 = icmp eq ptr %0, null
  %6 = icmp eq ptr %1, null
  %or.cond = or i1 %5, %6
  br i1 %or.cond, label %24, label %7

7:                                                ; preds = %3
  %8 = getelementptr inbounds nuw i8, ptr %0, i64 16
  %9 = load ptr, ptr %8, align 8, !tbaa !3
  call void @llvm.lifetime.start.p0(i64 55, ptr nonnull %4) #9
  %10 = icmp eq ptr %9, null
  br i1 %10, label %Hash_DRBG_Reseed.exit, label %11

11:                                               ; preds = %7
  call void @llvm.memset.p0.i64(ptr noundef nonnull align 16 dereferenceable(55) %4, i8 0, i64 55, i1 false)
  %12 = getelementptr inbounds nuw i8, ptr %9, i64 4
  %13 = call fastcc i32 @Hash_df(ptr noundef nonnull %9, ptr noundef nonnull %4, i8 noundef zeroext 1, ptr noundef nonnull %12, i32 noundef 55, ptr noundef nonnull %1, i32 noundef %2)
  %14 = icmp eq i32 %13, 0
  br i1 %14, label %.lr.ph29.preheader.i.i, label %Hash_DRBG_Reseed.exit

.lr.ph29.preheader.i.i:                           ; preds = %11
  call void @llvm.memcpy.p0.p0.i64(ptr noundef nonnull align 4 dereferenceable(55) %12, ptr noundef nonnull align 16 dereferenceable(55) %4, i64 55, i1 false)
  br label %.lr.ph29.i.i

.lr.ph29.i.i:                                     ; preds = %.lr.ph29.i.i, %.lr.ph29.preheader.i.i
  %.01528.i.i = phi ptr [ %15, %.lr.ph29.i.i ], [ %4, %.lr.ph29.preheader.i.i ]
  %.01827.i.i = phi i32 [ %16, %.lr.ph29.i.i ], [ 55, %.lr.ph29.preheader.i.i ]
  %15 = getelementptr inbounds nuw i8, ptr %.01528.i.i, i64 8
  store volatile i64 0, ptr %.01528.i.i, align 8, !tbaa !11
  %16 = add nsw i32 %.01827.i.i, -8
  %17 = icmp ugt i32 %16, 7
  br i1 %17, label %.lr.ph29.i.i, label %.lr.ph35.i.i, !llvm.loop !13

.lr.ph35.i.i:                                     ; preds = %.lr.ph29.i.i, %.lr.ph35.i.i
  %.11734.i.i = phi ptr [ %19, %.lr.ph35.i.i ], [ %15, %.lr.ph29.i.i ]
  %.11933.i.i = phi i32 [ %18, %.lr.ph35.i.i ], [ 7, %.lr.ph29.i.i ]
  %18 = add nsw i32 %.11933.i.i, -1
  %19 = getelementptr inbounds nuw i8, ptr %.11734.i.i, i64 1
  store volatile i8 0, ptr %.11734.i.i, align 1, !tbaa !15
  %.not22.i.i = icmp eq i32 %18, 0
  br i1 %.not22.i.i, label %.loopexit.i, label %.lr.ph35.i.i, !llvm.loop !16

.loopexit.i:                                      ; preds = %.lr.ph35.i.i
  %20 = getelementptr inbounds nuw i8, ptr %9, i64 59
  %21 = tail call fastcc i32 @Hash_df(ptr noundef nonnull %9, ptr noundef nonnull %20, i8 noundef zeroext 0, ptr noundef nonnull %12, i32 noundef 55, ptr noundef null, i32 noundef 0)
  %22 = icmp eq i32 %21, 0
  br i1 %22, label %23, label %Hash_DRBG_Reseed.exit

23:                                               ; preds = %.loopexit.i
  store i32 1, ptr %9, align 8, !tbaa !17
  br label %Hash_DRBG_Reseed.exit

Hash_DRBG_Reseed.exit:                            ; preds = %7, %11, %.loopexit.i, %23
  %.013.i = phi i32 [ 1, %7 ], [ 0, %23 ], [ 1, %.loopexit.i ], [ 1, %11 ]
  call void @llvm.lifetime.end.p0(i64 55, ptr nonnull %4) #9
  br label %24

24:                                               ; preds = %3, %Hash_DRBG_Reseed.exit
  %.0 = phi i32 [ %.013.i, %Hash_DRBG_Reseed.exit ], [ -173, %3 ]
  ret i32 %.0
}